target datalayout = "e-m:e-p270:32:32-p271:32:32-p272:64:64-i64:64-i128:128-f80:128-n8:16:32:64-S128"
target triple = "x86_64-pc-linux-gnu"

%struct.SDL_AtomicU32 = type { i32 }
%struct.SDL_Hint = type { ptr, i32, ptr }

@SDL_hint_props = internal global %struct.SDL_AtomicU32 zeroinitializer, align 4
@.str.6 = private unnamed_addr constant [17 x i8] c"SDL_VIDEO_DRIVER\00", align 1
@.str.7 = private unnamed_addr constant [16 x i8] c"SDL_VIDEODRIVER\00", align 1
@.str.8 = private unnamed_addr constant [17 x i8] c"SDL_AUDIO_DRIVER\00", align 1
@.str.9 = private unnamed_addr constant [16 x i8] c"SDL_AUDIODRIVER\00", align 1

; Function Attrs: nounwind uwtable
define internal i32 @GetHintProperties(i1 noundef zeroext %0) #0 {
  %2 = alloca i8, align 1
  %3 = alloca i32, align 4
  %4 = zext i1 %0 to i8
  store i8 %4, ptr %2, align 1
  call void @llvm.lifetime.start.p0(i64 4, ptr %3) #3
  %5 = call i32 @SDL_GetAtomicU32_REAL(ptr noundef @SDL_hint_props)
  store i32 %5, ptr %3, align 4
  %6 = load i32, ptr %3, align 4
  %7 = icmp ne i32 %6, 0
  br i1 %7, label %19, label %8

8:                                                ; preds = %1
  %9 = load i8, ptr %2, align 1, !range !6, !noundef !7
  %10 = trunc i8 %9 to i1
  br i1 %10, label %11, label %19

11:                                               ; preds = %8
  %12 = call i32 @SDL_CreateProperties_REAL()
  store i32 %12, ptr %3, align 4
  %13 = load i32, ptr %3, align 4
  %14 = call zeroext i1 @SDL_CompareAndSwapAtomicU32_REAL(ptr noundef @SDL_hint_props, i32 noundef 0, i32 noundef %13)
  br i1 %14, label %18, label %15

15:                                               ; preds = %11
  %16 = load i32, ptr %3, align 4
  call void @SDL_DestroyProperties_REAL(i32 noundef %16)
  %17 = call i32 @SDL_GetAtomicU32_REAL(ptr noundef @SDL_hint_props)
  store i32 %17, ptr %3, align 4
  br label %18

18:                                               ; preds = %15, %11
  br label %19

19:                                               ; preds = %18, %8, %1
  %20 = load i32, ptr %3, align 4
  call void @llvm.lifetime.end.p0(i64 4, ptr %3) #3
  ret i32 %20
}

; Function Attrs: nounwind uwtable
define internal ptr @GetHintEnvironmentVariable(ptr noundef %0) #0 {
  %2 = alloca ptr, align 8
  %3 = alloca ptr, align 8
  store ptr %0, ptr %2, align 8
  call void @llvm.lifetime.start.p0(i64 8, ptr %3) #3
  %4 = load ptr, ptr %2, align 8
  %5 = call ptr @SDL_getenv_REAL(ptr noundef %4)
  store ptr %5, ptr %3, align 8
  %6 = load ptr, ptr %3, align 8
  %7 = icmp ne ptr %6, null
  br i1 %7, label %30, label %8

8:                                                ; preds = %1
  %9 = load ptr, ptr %2, align 8
  %10 = icmp ne ptr %9, null
  br i1 %10, label %11, label %30

11:                                               ; preds = %8
  %12 = load ptr, ptr %2, align 8
  %13 = load i8, ptr %12, align 1
  %14 = sext i8 %13 to i32
  %15 = icmp ne i32 %14, 0
  br i1 %15, label %16, label %30

16:                                               ; preds = %11
  %17 = load ptr, ptr %2, align 8
  %18 = call i32 @SDL_strcmp_REAL(ptr noundef %17, ptr noundef @.str.6)
  %19 = icmp eq i32 %18, 0
  br i1 %19, label %20, label %22

20:                                               ; preds = %16
  %21 = call ptr @SDL_getenv_REAL(ptr noundef @.str.7)
  store ptr %21, ptr %3, align 8
  br label %29

22:                                               ; preds = %16
  %23 = load ptr, ptr %2, align 8
  %24 = call i32 @SDL_strcmp_REAL(ptr noundef %23, ptr noundef @.str.8)
  %25 = icmp eq i32 %24, 0
  br i1 %25, label %26, label %28

26:                                               ; preds = %22
  %27 = call ptr @SDL_getenv_REAL(ptr noundef @.str.9)
  store ptr %27, ptr %3, align 8
  br label %28

28:                                               ; preds = %26, %22
  br label %29

29:                                               ; preds = %28, %20
  br label %30

30:                                               ; preds = %29, %11, %8, %1
  %31 = load ptr, ptr %3, align 8
  call void @llvm.lifetime.end.p0(i64 8, ptr %3) #3
  ret ptr %31
}

; Function Attrs: nounwind uwtable
define hidden ptr @SDL_GetHint_REAL(ptr noundef %0) #0 {
  %2 = alloca ptr, align 8
  %3 = alloca ptr, align 8
  %4 = alloca ptr, align 8
  %5 = alloca i32, align 4
  %6 = alloca ptr, align 8
  store ptr %0, ptr %3, align 8
  %7 = load ptr, ptr %3, align 8
  %8 = icmp ne ptr %7, null
  br i1 %8, label %10, label %9

9:                                                ; preds = %1
  store ptr null, ptr %2, align 8
  br label %42

10:                                               ; preds = %1
  call void @llvm.lifetime.start.p0(i64 8, ptr %4) #3
  %11 = load ptr, ptr %3, align 8
  %12 = call ptr @GetHintEnvironmentVariable(ptr noundef %11)
  store ptr %12, ptr %4, align 8
  call void @llvm.lifetime.start.p0(i64 4, ptr %5) #3
  %13 = call i32 @GetHintProperties(i1 noundef zeroext false)
  store i32 %13, ptr %5, align 4
  %14 = load i32, ptr %5, align 4
  %15 = icmp ne i32 %14, 0
  br i1 %15, label %16, label %40

16:                                               ; preds = %10
  %17 = load i32, ptr %5, align 4
  %18 = call zeroext i1 @SDL_LockProperties_REAL(i32 noundef %17)
  call void @llvm.lifetime.start.p0(i64 8, ptr %6) #3
  %19 = load i32, ptr %5, align 4
  %20 = load ptr, ptr %3, align 8
  %21 = call ptr @SDL_GetPointerProperty_REAL(i32 noundef %19, ptr noundef %20, ptr noundef null)
  store ptr %21, ptr %6, align 8
  %22 = load ptr, ptr %6, align 8
  %23 = icmp ne ptr %22, null
  br i1 %23, label %24, label %38

24:                                               ; preds = %16
  %25 = load ptr, ptr %4, align 8
  %26 = icmp ne ptr %25, null
  br i1 %26, label %27, label %32

27:                                               ; preds = %24
  %28 = load ptr, ptr %6, align 8
  %29 = getelementptr inbounds nuw %struct.SDL_Hint, ptr %28, i32 0, i32 1
  %30 = load i32, ptr %29, align 8
  %31 = icmp eq i32 %30, 2
  br i1 %31, label %32, label %37

32:                                               ; preds = %27, %24
  %33 = load ptr, ptr %6, align 8
  %34 = getelementptr inbounds nuw %struct.SDL_Hint, ptr %33, i32 0, i32 0
  %35 = load ptr, ptr %34, align 8
  %36 = call ptr @SDL_GetPersistentString(ptr noundef %35)
  store ptr %36, ptr %4, align 8
  br label %37

37:                                               ; preds = %32, %27
  br label %38

38:                                               ; preds = %37, %16
  %39 = load i32, ptr %5, align 4
  call void @SDL_UnlockProperties_REAL(i32 noundef %39)
  call void @llvm.lifetime.end.p0(i64 8, ptr %6) #3
  br label %40

40:                                               ; preds = %38, %10
  %41 = load ptr, ptr %4, align 8
  store ptr %41, ptr %2, align 8
  call void @llvm.lifetime.end.p0(i64 4, ptr %5) #3
  call void @llvm.lifetime.end.p0(i64 8, ptr %4) #3
  br label %42

42:                                               ; preds = %40, %9
  %43 = load ptr, ptr %2, align 8
  ret ptr %43
}