; Function Attrs: nounwind uwtable
define hidden ptr @SDL_GetHint_REAL(ptr noundef %0) local_unnamed_addr #1 {
  %.not = icmp eq ptr %0, null
  br i1 %.not, label %27, label %2

2:                                                ; preds = %1
  %3 = tail call ptr @SDL_getenv_REAL(ptr noundef nonnull %0) #3
  %4 = icmp eq ptr %3, null
  br i1 %4, label %5, label %GetHintEnvironmentVariable.exit

5:                                                ; preds = %2
  %6 = load i8, ptr %0, align 1
  %.not.i = icmp eq i8 %6, 0
  br i1 %.not.i, label %GetHintEnvironmentVariable.exit, label %7

7:                                                ; preds = %5
  %8 = tail call i32 @SDL_strcmp_REAL(ptr noundef nonnull %0, ptr noundef nonnull @.str.6) #3
  %9 = icmp eq i32 %8, 0
  br i1 %9, label %.sink.split.i, label %10

10:                                               ; preds = %7
  %11 = tail call i32 @SDL_strcmp_REAL(ptr noundef nonnull %0, ptr noundef nonnull @.str.8) #3
  %12 = icmp eq i32 %11, 0
  br i1 %12, label %.sink.split.i, label %GetHintEnvironmentVariable.exit

.sink.split.i:                                    ; preds = %10, %7
  %.str.7.sink.i = phi ptr [ @.str.7, %7 ], [ @.str.9, %10 ]
  %13 = tail call ptr @SDL_getenv_REAL(ptr noundef nonnull %.str.7.sink.i) #3
  br label %GetHintEnvironmentVariable.exit

GetHintEnvironmentVariable.exit:                  ; preds = %2, %5, %10, %.sink.split.i
  %.0.i = phi ptr [ null, %10 ], [ null, %5 ], [ %3, %2 ], [ %13, %.sink.split.i ]
  %14 = tail call i32 @SDL_GetAtomicU32_REAL(ptr noundef nonnull @SDL_hint_props) #3
  %.not17 = icmp eq i32 %14, 0
  br i1 %.not17, label %27, label %15

15:                                               ; preds = %GetHintEnvironmentVariable.exit
  %16 = tail call zeroext i1 @SDL_LockProperties_REAL(i32 noundef %14) #3
  %17 = tail call ptr @SDL_GetPointerProperty_REAL(i32 noundef %14, ptr noundef nonnull %0, ptr noundef null) #3
  %.not18 = icmp eq ptr %17, null
  br i1 %.not18, label %26, label %18

18:                                               ; preds = %15
  %.not19 = icmp eq ptr %.0.i, null
  br i1 %.not19, label %23, label %19

19:                                               ; preds = %18
  %20 = getelementptr inbounds nuw i8, ptr %17, i64 8
  %21 = load i32, ptr %20, align 8
  %22 = icmp eq i32 %21, 2
  br i1 %22, label %23, label %26

23:                                               ; preds = %19, %18
  %24 = load ptr, ptr %17, align 8
  %25 = tail call ptr @SDL_GetPersistentString(ptr noundef %24) #3
  br label %26

26:                                               ; preds = %19, %23, %15
  %.1 = phi ptr [ %25, %23 ], [ %.0.i, %19 ], [ %.0.i, %15 ]
  tail call void @SDL_UnlockProperties_REAL(i32 noundef %14) #3
  br label %27

27:                                               ; preds = %GetHintEnvironmentVariable.exit, %26, %1
  %.0 = phi ptr [ null, %1 ], [ %.1, %26 ], [ %.0.i, %GetHintEnvironmentVariable.exit ]
  ret ptr %.0
}